	.section	__TEXT,__text,regular,pure_instructions
	.build_version macos, 10, 14	sdk_version 10, 14
	.file	1 "/Users/edz/Desktop/code/playground/code/OS" "/Library/Developer/CommandLineTools/SDKs/MacOSX10.14.sdk/usr/include/_stdio.h"
	.file	2 "/Users/edz/Desktop/code/playground/code/OS" "/Library/Developer/CommandLineTools/SDKs/MacOSX10.14.sdk/usr/include/i386/_types.h"
	.file	3 "/Users/edz/Desktop/code/playground/code/OS" "/Library/Developer/CommandLineTools/SDKs/MacOSX10.14.sdk/usr/include/sys/_types.h"
	.file	4 "/Users/edz/Desktop/code/playground/code/OS" "/Library/Developer/CommandLineTools/usr/include/c++/v1/cstdio"
	.file	5 "/Users/edz/Desktop/code/playground/code/OS" "/Library/Developer/CommandLineTools/SDKs/MacOSX10.14.sdk/usr/include/sys/_types/_size_t.h"
	.file	6 "/Users/edz/Desktop/code/playground/code/OS" "/Library/Developer/CommandLineTools/SDKs/MacOSX10.14.sdk/usr/include/stdio.h"
	.globl	__Z6myfunci             ## -- Begin function _Z6myfunci
	.p2align	4, 0x90
__Z6myfunci:                            ## @_Z6myfunci
Lfunc_begin0:
	.file	7 "/Users/edz/Desktop/code/playground/code/OS" "callStack.cpp"
	.loc	7 3 0                   ## callStack.cpp:3:0
	.cfi_startproc
## %bb.0:
	pushq	%rbp
	.cfi_def_cfa_offset 16
	.cfi_offset %rbp, -16
	movq	%rsp, %rbp
	.cfi_def_cfa_register %rbp
	subq	$16, %rsp
	movl	%edi, -4(%rbp)
Ltmp0:
	.loc	7 4 17 prologue_end     ## callStack.cpp:4:17
	movl	-4(%rbp), %esi
	.loc	7 4 5 is_stmt 0         ## callStack.cpp:4:5
	leaq	L_.str(%rip), %rdi
	movb	$0, %al
	callq	_printf
	xorl	%esi, %esi
	.loc	7 5 5 is_stmt 1         ## callStack.cpp:5:5
	movl	%eax, -8(%rbp)          ## 4-byte Spill
	movl	%esi, %eax
	addq	$16, %rsp
	popq	%rbp
	retq
Ltmp1:
Lfunc_end0:
	.cfi_endproc
                                        ## -- End function
	.globl	_main                   ## -- Begin function main
	.p2align	4, 0x90
_main:                                  ## @main
Lfunc_begin1:
	.loc	7 7 0                   ## callStack.cpp:7:0
	.cfi_startproc
## %bb.0:
	pushq	%rbp
	.cfi_def_cfa_offset 16
	.cfi_offset %rbp, -16
	movq	%rsp, %rbp
	.cfi_def_cfa_register %rbp
	subq	$16, %rsp
	movl	$0, -4(%rbp)
Ltmp2:
	.loc	7 8 9 prologue_end      ## callStack.cpp:8:9
	movl	$10, -8(%rbp)
	.loc	7 9 12                  ## callStack.cpp:9:12
	movl	-8(%rbp), %edi
	.loc	7 9 5 is_stmt 0         ## callStack.cpp:9:5
	callq	__Z6myfunci
	xorl	%edi, %edi
	.loc	7 10 5 is_stmt 1        ## callStack.cpp:10:5
	movl	%eax, -12(%rbp)         ## 4-byte Spill
	movl	%edi, %eax
	addq	$16, %rsp
	popq	%rbp
	retq
Ltmp3:
Lfunc_end1:
	.cfi_endproc
                                        ## -- End function
	.section	__TEXT,__cstring,cstring_literals
L_.str:                                 ## @.str
	.asciz	"%d"
